target datalayout = "e-m:e-p270:32:32-p271:32:32-p272:64:64-i64:64-i128:128-f80:128-n8:16:32:64-S128"
target triple = "x86_64-pc-linux-gnu"

%class.QString = type { %struct.QArrayDataPointer }
%struct.QArrayDataPointer = type { ptr, ptr, i64 }
%class.SequenceDialog = type <{ %class.WiresharkDialog.base, [3 x i8], ptr, ptr, ptr, i32, i32, double, i32, i8, [3 x i8], ptr, ptr, ptr, %class.QMenu, ptr, ptr, ptr, ptr, %class.QPointer, i8, [7 x i8] }>
%class.WiresharkDialog.base = type <{ %class.GeometryStateDialog, ptr, i8, [7 x i8], %class.QString, %class.QList, i32, i8 }>
%class.GeometryStateDialog = type { %class.QDialog, %class.QString, ptr }
%class.QDialog = type { %class.QWidget }
%class.QWidget = type { %class.QObject, %class.QPaintDevice.base, ptr }
%class.QObject = type { ptr, %class.QScopedPointer }
%class.QScopedPointer = type { ptr }
%class.QPaintDevice.base = type <{ ptr, i16 }>
%class.QList = type { %struct.QArrayDataPointer.0 }
%struct.QArrayDataPointer.0 = type { ptr, ptr, i64 }
%class.QMenu = type { %class.QWidget }
%class.QPointer = type { %class.QWeakPointer }
%class.QWeakPointer = type { ptr, ptr }

; Function Attrs: mustprogress null_pointer_is_valid sspstrong uwtable
define void @_ZN14SequenceDialog11resizeEventEP12QResizeEvent(ptr noundef align 8 dereferenceable_or_null(305) %0, ptr noundef %1) unnamed_addr #0 align 2 {
  %3 = alloca ptr, align 8
  %4 = alloca ptr, align 8
  store ptr %0, ptr %3, align 8
  store ptr %1, ptr %4, align 8
  %5 = load ptr, ptr %3, align 8
  %6 = getelementptr inbounds nuw %class.SequenceDialog, ptr %5, i32 0, i32 4
  %7 = load ptr, ptr %6, align 8
  %8 = icmp ne ptr %7, null
  br i1 %8, label %10, label %9

9:                                                ; preds = %2
  br label %11

10:                                               ; preds = %2
  call void @_ZN14SequenceDialog9resetAxesEb(ptr noundef align 8 dereferenceable_or_null(305) %5, i1 noundef zeroext true)
  br label %11

11:                                               ; preds = %10, %9
  ret void
}