; Function Attrs: mustprogress null_pointer_is_valid sspstrong uwtable
define void @_ZN14SequenceDialog11resizeEventEP12QResizeEvent(ptr noundef readonly align 8 captures(none) dereferenceable_or_null(305) %0, ptr readnone captures(none) %1) unnamed_addr #0 align 2 {
  %3 = getelementptr inbounds nuw i8, ptr %0, i64 160
  %4 = load ptr, ptr %3, align 8
  %.not = icmp eq ptr %4, null
  br i1 %.not, label %6, label %5

5:                                                ; preds = %2
  tail call void @_ZN14SequenceDialog9resetAxesEb(ptr noundef align 8 dereferenceable_or_null(305) %0, i1 noundef zeroext true)
  br label %6

6:                                                ; preds = %2, %5
  ret void
}